; ModuleID = 'source-C-CXX/12/1087.cpp'
source_filename = "source-C-CXX/12/1087.cpp"
target datalayout = "e-m:e-p270:32:32-p271:32:32-p272:64:64-i64:64-f80:128-n8:16:32:64-S128"
target triple = "x86_64-pc-linux-gnu"

%"class.std::ios_base::Init" = type { i8 }
%"class.std::basic_istream" = type { i32 (...)**, i64, %"class.std::basic_ios" }
%"class.std::basic_ios" = type { %"class.std::ios_base", %"class.std::basic_ostream"*, i8, i8, %"class.std::basic_streambuf"*, %"class.std::ctype"*, %"class.std::num_put"*, %"class.std::num_get"* }
%"class.std::ios_base" = type { i32 (...)**, i64, i64, i32, i32, i32, %"struct.std::ios_base::_Callback_list"*, %"struct.std::ios_base::_Words", [8 x %"struct.std::ios_base::_Words"], i32, %"struct.std::ios_base::_Words"*, %"class.std::locale" }
%"struct.std::ios_base::_Callback_list" = type { %"struct.std::ios_base::_Callback_list"*, void (i32, %"class.std::ios_base"*, i32)*, i32, i32 }
%"struct.std::ios_base::_Words" = type { i8*, i64 }
%"class.std::locale" = type { %"class.std::locale::_Impl"* }
%"class.std::locale::_Impl" = type { i32, %"class.std::locale::facet"**, i64, %"class.std::locale::facet"**, i8** }
%"class.std::locale::facet" = type <{ i32 (...)**, i32, [4 x i8] }>
%"class.std::basic_ostream" = type { i32 (...)**, %"class.std::basic_ios" }
%"class.std::basic_streambuf" = type { i32 (...)**, i8*, i8*, i8*, i8*, i8*, i8*, %"class.std::locale" }
%"class.std::ctype" = type <{ %"class.std::locale::facet.base", [4 x i8], %struct.__locale_struct*, i8, [7 x i8], i32*, i32*, i16*, i8, [256 x i8], [256 x i8], i8, [6 x i8] }>
%"class.std::locale::facet.base" = type <{ i32 (...)**, i32 }>
%struct.__locale_struct = type { [13 x %struct.__locale_data*], i16*, i32*, i32*, [13 x i8*] }
%struct.__locale_data = type opaque
%"class.std::num_put" = type { %"class.std::locale::facet.base", [4 x i8] }
%"class.std::num_get" = type { %"class.std::locale::facet.base", [4 x i8] }

@_ZStL8__ioinit = internal global %"class.std::ios_base::Init" zeroinitializer, align 1
@__dso_handle = external hidden global i8
@_ZSt3cin = external global %"class.std::basic_istream", align 8
@_ZSt4cout = external global %"class.std::basic_ostream", align 8
@.str = private unnamed_addr constant [2 x i8] c" \00", align 1
@llvm.global_ctors = appending global [1 x { i32, void ()*, i8* }] [{ i32, void ()*, i8* } { i32 65535, void ()* @_GLOBAL__sub_I_1087.cpp, i8* null }]

declare void @_ZNSt8ios_base4InitC1Ev(%"class.std::ios_base::Init"* nonnull align 1 dereferenceable(1)) unnamed_addr #0

; Function Attrs: nounwind
declare void @_ZNSt8ios_base4InitD1Ev(%"class.std::ios_base::Init"* nonnull align 1 dereferenceable(1)) unnamed_addr #1

; Function Attrs: nofree nounwind
declare i32 @__cxa_atexit(void (i8*)*, i8*, i8*) local_unnamed_addr #2

; Function Attrs: mustprogress norecurse sspstrong uwtable
define dso_local i32 @main() local_unnamed_addr #3 {
  %1 = alloca [10005 x i32], align 16
  %2 = alloca i32, align 4
  %3 = bitcast [10005 x i32]* %1 to i8*
  call void @llvm.lifetime.start.p0i8(i64 40020, i8* nonnull %3) #6
  %4 = bitcast i32* %2 to i8*
  call void @llvm.lifetime.start.p0i8(i64 4, i8* nonnull %4) #6
  %5 = call nonnull align 8 dereferenceable(16) %"class.std::basic_istream"* @_ZNSirsERi(%"class.std::basic_istream"* nonnull align 8 dereferenceable(16) @_ZSt3cin, i32* nonnull align 4 dereferenceable(4) %2)
  %6 = load i32, i32* %2, align 4, !tbaa !5
  %7 = icmp slt i32 %6, 1
  br i1 %7, label %81, label %8

8:                                                ; preds = %0, %74
  %9 = phi i64 [ %80, %74 ], [ 0, %0 ]
  %10 = phi i64 [ %76, %74 ], [ 1, %0 ]
  %11 = phi i32 [ %75, %74 ], [ 0, %0 ]
  %12 = getelementptr inbounds [10005 x i32], [10005 x i32]* %1, i64 0, i64 %10
  %13 = call nonnull align 8 dereferenceable(16) %"class.std::basic_istream"* @_ZNSirsERi(%"class.std::basic_istream"* nonnull align 8 dereferenceable(16) @_ZSt3cin, i32* nonnull align 4 dereferenceable(4) %12)
  %14 = icmp ugt i64 %10, 1
  br i1 %14, label %15, label %67

15:                                               ; preds = %8
  %16 = add i64 %9, -1
  %17 = load i32, i32* %12, align 4, !tbaa !5
  %18 = and i64 %9, 3
  %19 = icmp ult i64 %16, 3
  br i1 %19, label %48, label %20

20:                                               ; preds = %15
  %21 = and i64 %9, -4
  br label %22

22:                                               ; preds = %22, %20
  %23 = phi i64 [ 1, %20 ], [ %45, %22 ]
  %24 = phi i32 [ 1, %20 ], [ %44, %22 ]
  %25 = phi i64 [ %21, %20 ], [ %46, %22 ]
  %26 = getelementptr inbounds [10005 x i32], [10005 x i32]* %1, i64 0, i64 %23
  %27 = load i32, i32* %26, align 4, !tbaa !5
  %28 = icmp eq i32 %27, %17
  %29 = add nuw nsw i64 %23, 1
  %30 = getelementptr inbounds [10005 x i32], [10005 x i32]* %1, i64 0, i64 %29
  %31 = load i32, i32* %30, align 4, !tbaa !5
  %32 = icmp eq i32 %31, %17
  %33 = add nuw nsw i64 %23, 2
  %34 = getelementptr inbounds [10005 x i32], [10005 x i32]* %1, i64 0, i64 %33
  %35 = load i32, i32* %34, align 4, !tbaa !5
  %36 = icmp eq i32 %35, %17
  %37 = add nuw nsw i64 %23, 3
  %38 = getelementptr inbounds [10005 x i32], [10005 x i32]* %1, i64 0, i64 %37
  %39 = load i32, i32* %38, align 4, !tbaa !5
  %40 = icmp eq i32 %39, %17
  %41 = select i1 %40, i1 true, i1 %36
  %42 = select i1 %41, i1 true, i1 %32
  %43 = select i1 %42, i1 true, i1 %28
  %44 = select i1 %43, i32 0, i32 %24
  %45 = add nuw nsw i64 %23, 4
  %46 = add i64 %25, -4
  %47 = icmp eq i64 %46, 0
  br i1 %47, label %48, label %22, !llvm.loop !9

48:                                               ; preds = %22, %15
  %49 = phi i32 [ undef, %15 ], [ %44, %22 ]
  %50 = phi i64 [ 1, %15 ], [ %45, %22 ]
  %51 = phi i32 [ 1, %15 ], [ %44, %22 ]
  %52 = icmp eq i64 %18, 0
  br i1 %52, label %64, label %53

53:                                               ; preds = %48, %53
  %54 = phi i64 [ %61, %53 ], [ %50, %48 ]
  %55 = phi i32 [ %60, %53 ], [ %51, %48 ]
  %56 = phi i64 [ %62, %53 ], [ %18, %48 ]
  %57 = getelementptr inbounds [10005 x i32], [10005 x i32]* %1, i64 0, i64 %54
  %58 = load i32, i32* %57, align 4, !tbaa !5
  %59 = icmp eq i32 %58, %17
  %60 = select i1 %59, i32 0, i32 %55
  %61 = add nuw nsw i64 %54, 1
  %62 = add i64 %56, -1
  %63 = icmp eq i64 %62, 0
  br i1 %63, label %64, label %53, !llvm.loop !11

64:                                               ; preds = %53, %48
  %65 = phi i32 [ %49, %48 ], [ %60, %53 ]
  %66 = icmp eq i32 %65, 0
  br i1 %66, label %74, label %67

67:                                               ; preds = %8, %64
  %68 = icmp eq i32 %11, 0
  br i1 %68, label %71, label %69

69:                                               ; preds = %67
  %70 = call nonnull align 8 dereferenceable(8) %"class.std::basic_ostream"* @_ZSt16__ostream_insertIcSt11char_traitsIcEERSt13basic_ostreamIT_T0_ES6_PKS3_l(%"class.std::basic_ostream"* nonnull align 8 dereferenceable(8) @_ZSt4cout, i8* nonnull getelementptr inbounds ([2 x i8], [2 x i8]* @.str, i64 0, i64 0), i64 1)
  br label %71

71:                                               ; preds = %67, %69
  %72 = load i32, i32* %12, align 4, !tbaa !5
  %73 = call nonnull align 8 dereferenceable(8) %"class.std::basic_ostream"* @_ZNSolsEi(%"class.std::basic_ostream"* nonnull align 8 dereferenceable(8) @_ZSt4cout, i32 %72)
  br label %74

74:                                               ; preds = %71, %64
  %75 = phi i32 [ %11, %64 ], [ 1, %71 ]
  %76 = add nuw nsw i64 %10, 1
  %77 = load i32, i32* %2, align 4, !tbaa !5
  %78 = sext i32 %77 to i64
  %79 = icmp slt i64 %10, %78
  %80 = add i64 %9, 1
  br i1 %79, label %8, label %81, !llvm.loop !13

81:                                               ; preds = %74, %0
  call void @llvm.lifetime.end.p0i8(i64 4, i8* nonnull %4) #6
  call void @llvm.lifetime.end.p0i8(i64 40020, i8* nonnull %3) #6
  ret i32 0
}

; Function Attrs: argmemonly mustprogress nofree nosync nounwind willreturn
declare void @llvm.lifetime.start.p0i8(i64 immarg, i8* nocapture) #4

declare nonnull align 8 dereferenceable(16) %"class.std::basic_istream"* @_ZNSirsERi(%"class.std::basic_istream"* nonnull align 8 dereferenceable(16), i32* nonnull align 4 dereferenceable(4)) local_unnamed_addr #0

declare nonnull align 8 dereferenceable(8) %"class.std::basic_ostream"* @_ZNSolsEi(%"class.std::basic_ostream"* nonnull align 8 dereferenceable(8), i32) local_unnamed_addr #0

; Function Attrs: argmemonly mustprogress nofree nosync nounwind willreturn
declare void @llvm.lifetime.end.p0i8(i64 immarg, i8* nocapture) #4

declare nonnull align 8 dereferenceable(8) %"class.std::basic_ostream"* @_ZSt16__ostream_insertIcSt11char_traitsIcEERSt13basic_ostreamIT_T0_ES6_PKS3_l(%"class.std::basic_ostream"* nonnull align 8 dereferenceable(8), i8*, i64) local_unnamed_addr #0

; Function Attrs: sspstrong uwtable
define internal void @_GLOBAL__sub_I_1087.cpp() #5 section ".text.startup" {
  tail call void @_ZNSt8ios_base4InitC1Ev(%"class.std::ios_base::Init"* nonnull align 1 dereferenceable(1) @_ZStL8__ioinit)
  %1 = tail call i32 @__cxa_atexit(void (i8*)* bitcast (void (%"class.std::ios_base::Init"*)* @_ZNSt8ios_base4InitD1Ev to void (i8*)*), i8* getelementptr inbounds (%"class.std::ios_base::Init", %"class.std::ios_base::Init"* @_ZStL8__ioinit, i64 0, i32 0), i8* nonnull @__dso_handle) #6
  ret void
}


!llvm.module.flags = !{!0, !1, !2, !3}
!llvm.ident = !{!4}

!0 = !{i32 1, !"wchar_size", i32 4}
!1 = !{i32 7, !"PIC Level", i32 2}
!2 = !{i32 7, !"PIE Level", i32 2}
!3 = !{i32 7, !"uwtable", i32 1}
!4 = !{!"clang version 13.0.0"}
!5 = !{!6, !6, i64 0}
!6 = !{!"int", !7, i64 0}
!7 = !{!"omnipotent char", !8, i64 0}
!8 = !{!"Simple C++ TBAA"}
!9 = distinct !{!9, !10}
!10 = !{!"llvm.loop.mustprogress"}
!11 = distinct !{!11, !12}
!12 = !{!"llvm.loop.unroll.disable"}
!13 = distinct !{!13, !10}
